target datalayout = "e-m:e-p270:32:32-p271:32:32-p272:64:64-i64:64-i128:128-f80:128-n8:16:32:64-S128"
target triple = "x86_64-pc-linux-gnu"

%struct.sp_int = type { i16, i16, [129 x i64] }

@ByteToHex.kHexChar = internal constant [16 x i8] c"0123456789ABCDEF", align 64

; Function Attrs: inlinehint nounwind uwtable
define internal signext i8 @ByteToHex(i8 noundef zeroext %0) #2 {
  %2 = alloca i8, align 1
  store i8 %0, ptr %2, align 1, !tbaa !26
  %3 = load i8, ptr %2, align 1, !tbaa !26
  %4 = zext i8 %3 to i32
  %5 = and i32 %4, 15
  %6 = sext i32 %5 to i64
  %7 = getelementptr inbounds [16 x i8], ptr @ByteToHex.kHexChar, i64 0, i64 %6
  %8 = load i8, ptr %7, align 1, !tbaa !26
  ret i8 %8
}

; Function Attrs: nounwind uwtable
define i32 @sp_tohex(ptr noundef %0, ptr noundef %1) #0 {
  %3 = alloca ptr, align 8
  %4 = alloca ptr, align 8
  %5 = alloca i32, align 4
  %6 = alloca i32, align 4
  %7 = alloca i32, align 4
  %8 = alloca i64, align 8
  store ptr %0, ptr %3, align 8, !tbaa !3
  store ptr %1, ptr %4, align 8, !tbaa !24
  call void @llvm.lifetime.start.p0(i64 4, ptr %5) #8
  store i32 0, ptr %5, align 4, !tbaa !8
  %9 = load ptr, ptr %3, align 8, !tbaa !3
  %10 = icmp eq ptr %9, null
  br i1 %10, label %14, label %11

11:                                               ; preds = %2
  %12 = load ptr, ptr %4, align 8, !tbaa !24
  %13 = icmp eq ptr %12, null
  br i1 %13, label %14, label %15

14:                                               ; preds = %11, %2
  store i32 -98, ptr %5, align 4, !tbaa !8
  br label %15

15:                                               ; preds = %14, %11
  %16 = load i32, ptr %5, align 4, !tbaa !8
  %17 = icmp eq i32 %16, 0
  br i1 %17, label %18, label %127

18:                                               ; preds = %15
  %19 = load ptr, ptr %3, align 8, !tbaa !3
  %20 = getelementptr inbounds nuw %struct.sp_int, ptr %19, i32 0, i32 0
  %21 = load i16, ptr %20, align 8, !tbaa !15
  %22 = zext i16 %21 to i32
  %23 = icmp eq i32 %22, 0
  %24 = zext i1 %23 to i32
  %25 = icmp eq i32 %24, 1
  br i1 %25, label %26, label %31

26:                                               ; preds = %18
  %27 = load ptr, ptr %4, align 8, !tbaa !24
  %28 = getelementptr inbounds nuw i8, ptr %27, i32 1
  store ptr %28, ptr %4, align 8, !tbaa !24
  store i8 48, ptr %27, align 1, !tbaa !26
  %29 = load ptr, ptr %4, align 8, !tbaa !24
  %30 = getelementptr inbounds nuw i8, ptr %29, i32 1
  store ptr %30, ptr %4, align 8, !tbaa !24
  store i8 48, ptr %29, align 1, !tbaa !26
  br label %125

31:                                               ; preds = %18
  call void @llvm.lifetime.start.p0(i64 4, ptr %6) #8
  call void @llvm.lifetime.start.p0(i64 4, ptr %7) #8
  call void @llvm.lifetime.start.p0(i64 8, ptr %8) #8
  %32 = load ptr, ptr %3, align 8, !tbaa !3
  %33 = getelementptr inbounds nuw %struct.sp_int, ptr %32, i32 0, i32 0
  %34 = load i16, ptr %33, align 8, !tbaa !15
  %35 = zext i16 %34 to i32
  %36 = sub nsw i32 %35, 1
  store i32 %36, ptr %6, align 4, !tbaa !8
  %37 = load ptr, ptr %3, align 8, !tbaa !3
  %38 = getelementptr inbounds nuw %struct.sp_int, ptr %37, i32 0, i32 2
  %39 = load i32, ptr %6, align 4, !tbaa !8
  %40 = sext i32 %39 to i64
  %41 = getelementptr inbounds [129 x i64], ptr %38, i64 0, i64 %40
  %42 = load i64, ptr %41, align 8, !tbaa !16
  store i64 %42, ptr %8, align 8, !tbaa !16
  store i32 56, ptr %7, align 4, !tbaa !8
  br label %43

43:                                               ; preds = %71, %31
  %44 = load i32, ptr %7, align 4, !tbaa !8
  %45 = icmp sge i32 %44, 0
  br i1 %45, label %46, label %49

46:                                               ; preds = %43
  %47 = load i32, ptr %6, align 4, !tbaa !8
  %48 = icmp sge i32 %47, 0
  br label %49

49:                                               ; preds = %46, %43
  %50 = phi i1 [ false, %43 ], [ %48, %46 ]
  br i1 %50, label %51, label %74

51:                                               ; preds = %49
  %52 = load i64, ptr %8, align 8, !tbaa !16
  %53 = load i32, ptr %7, align 4, !tbaa !8
  %54 = zext i32 %53 to i64
  %55 = lshr i64 %52, %54
  %56 = and i64 %55, 255
  %57 = icmp ne i64 %56, 0
  br i1 %57, label %58, label %59

58:                                               ; preds = %51
  br label %74

59:                                               ; preds = %51
  %60 = load i32, ptr %7, align 4, !tbaa !8
  %61 = icmp eq i32 %60, 0
  br i1 %61, label %62, label %70

62:                                               ; preds = %59
  store i32 56, ptr %7, align 4, !tbaa !8
  %63 = load ptr, ptr %3, align 8, !tbaa !3
  %64 = getelementptr inbounds nuw %struct.sp_int, ptr %63, i32 0, i32 2
  %65 = load i32, ptr %6, align 4, !tbaa !8
  %66 = add nsw i32 %65, -1
  store i32 %66, ptr %6, align 4, !tbaa !8
  %67 = sext i32 %66 to i64
  %68 = getelementptr inbounds [129 x i64], ptr %64, i64 0, i64 %67
  %69 = load i64, ptr %68, align 8, !tbaa !16
  store i64 %69, ptr %8, align 8, !tbaa !16
  br label %70

70:                                               ; preds = %62, %59
  br label %71

71:                                               ; preds = %70
  %72 = load i32, ptr %7, align 4, !tbaa !8
  %73 = sub nsw i32 %72, 8
  store i32 %73, ptr %7, align 4, !tbaa !8
  br label %43, !llvm.loop !133

74:                                               ; preds = %58, %49
  %75 = load i32, ptr %7, align 4, !tbaa !8
  %76 = add nsw i32 %75, 4
  store i32 %76, ptr %7, align 4, !tbaa !8
  br label %77

77:                                               ; preds = %89, %74
  %78 = load i32, ptr %7, align 4, !tbaa !8
  %79 = icmp sge i32 %78, 0
  br i1 %79, label %80, label %92

80:                                               ; preds = %77
  %81 = load i64, ptr %8, align 8, !tbaa !16
  %82 = load i32, ptr %7, align 4, !tbaa !8
  %83 = zext i32 %82 to i64
  %84 = lshr i64 %81, %83
  %85 = trunc i64 %84 to i8
  %86 = call signext i8 @ByteToHex(i8 noundef zeroext %85)
  %87 = load ptr, ptr %4, align 8, !tbaa !24
  %88 = getelementptr inbounds nuw i8, ptr %87, i32 1
  store ptr %88, ptr %4, align 8, !tbaa !24
  store i8 %86, ptr %87, align 1, !tbaa !26
  br label %89

89:                                               ; preds = %80
  %90 = load i32, ptr %7, align 4, !tbaa !8
  %91 = sub nsw i32 %90, 4
  store i32 %91, ptr %7, align 4, !tbaa !8
  br label %77, !llvm.loop !134

92:                                               ; preds = %77
  %93 = load i32, ptr %6, align 4, !tbaa !8
  %94 = add nsw i32 %93, -1
  store i32 %94, ptr %6, align 4, !tbaa !8
  br label %95

95:                                               ; preds = %121, %92
  %96 = load i32, ptr %6, align 4, !tbaa !8
  %97 = icmp sge i32 %96, 0
  br i1 %97, label %98, label %124

98:                                               ; preds = %95
  %99 = load ptr, ptr %3, align 8, !tbaa !3
  %100 = getelementptr inbounds nuw %struct.sp_int, ptr %99, i32 0, i32 2
  %101 = load i32, ptr %6, align 4, !tbaa !8
  %102 = sext i32 %101 to i64
  %103 = getelementptr inbounds [129 x i64], ptr %100, i64 0, i64 %102
  %104 = load i64, ptr %103, align 8, !tbaa !16
  store i64 %104, ptr %8, align 8, !tbaa !16
  store i32 60, ptr %7, align 4, !tbaa !8
  br label %105

105:                                              ; preds = %117, %98
  %106 = load i32, ptr %7, align 4, !tbaa !8
  %107 = icmp sge i32 %106, 0
  br i1 %107, label %108, label %120

108:                                              ; preds = %105
  %109 = load i64, ptr %8, align 8, !tbaa !16
  %110 = load i32, ptr %7, align 4, !tbaa !8
  %111 = zext i32 %110 to i64
  %112 = lshr i64 %109, %111
  %113 = trunc i64 %112 to i8
  %114 = call signext i8 @ByteToHex(i8 noundef zeroext %113)
  %115 = load ptr, ptr %4, align 8, !tbaa !24
  %116 = getelementptr inbounds nuw i8, ptr %115, i32 1
  store ptr %116, ptr %4, align 8, !tbaa !24
  store i8 %114, ptr %115, align 1, !tbaa !26
  br label %117

117:                                              ; preds = %108
  %118 = load i32, ptr %7, align 4, !tbaa !8
  %119 = sub nsw i32 %118, 4
  store i32 %119, ptr %7, align 4, !tbaa !8
  br label %105, !llvm.loop !135

120:                                              ; preds = %105
  br label %121

121:                                              ; preds = %120
  %122 = load i32, ptr %6, align 4, !tbaa !8
  %123 = add nsw i32 %122, -1
  store i32 %123, ptr %6, align 4, !tbaa !8
  br label %95, !llvm.loop !136

124:                                              ; preds = %95
  call void @llvm.lifetime.end.p0(i64 8, ptr %8) #8
  call void @llvm.lifetime.end.p0(i64 4, ptr %7) #8
  call void @llvm.lifetime.end.p0(i64 4, ptr %6) #8
  br label %125

125:                                              ; preds = %124, %26
  %126 = load ptr, ptr %4, align 8, !tbaa !24
  store i8 0, ptr %126, align 1, !tbaa !26
  br label %127

127:                                              ; preds = %125, %15
  %128 = load i32, ptr %5, align 4, !tbaa !8
  call void @llvm.lifetime.end.p0(i64 4, ptr %5) #8
  ret i32 %128
}

; Function Attrs: nounwind uwtable
define i32 @sp_toradix(ptr noundef %0, ptr noundef %1, i32 noundef %2) #0 {
  %4 = alloca ptr, align 8
  %5 = alloca ptr, align 8
  %6 = alloca i32, align 4
  %7 = alloca i32, align 4
  store ptr %0, ptr %4, align 8, !tbaa !3
  store ptr %1, ptr %5, align 8, !tbaa !24
  store i32 %2, ptr %6, align 4, !tbaa !8
  call void @llvm.lifetime.start.p0(i64 4, ptr %7) #8
  store i32 0, ptr %7, align 4, !tbaa !8
  %8 = load ptr, ptr %4, align 8, !tbaa !3
  %9 = icmp eq ptr %8, null
  br i1 %9, label %13, label %10

10:                                               ; preds = %3
  %11 = load ptr, ptr %5, align 8, !tbaa !24
  %12 = icmp eq ptr %11, null
  br i1 %12, label %13, label %14

13:                                               ; preds = %10, %3
  store i32 -98, ptr %7, align 4, !tbaa !8
  br label %31

14:                                               ; preds = %10
  %15 = load i32, ptr %6, align 4, !tbaa !8
  %16 = icmp eq i32 %15, 16
  br i1 %16, label %17, label %21

17:                                               ; preds = %14
  %18 = load ptr, ptr %4, align 8, !tbaa !3
  %19 = load ptr, ptr %5, align 8, !tbaa !24
  %20 = call i32 @sp_tohex(ptr noundef %18, ptr noundef %19)
  store i32 %20, ptr %7, align 4, !tbaa !8
  br label %30

21:                                               ; preds = %14
  %22 = load i32, ptr %6, align 4, !tbaa !8
  %23 = icmp eq i32 %22, 10
  br i1 %23, label %24, label %28

24:                                               ; preds = %21
  %25 = load ptr, ptr %4, align 8, !tbaa !3
  %26 = load ptr, ptr %5, align 8, !tbaa !24
  %27 = call i32 @sp_todecimal(ptr noundef %25, ptr noundef %26)
  store i32 %27, ptr %7, align 4, !tbaa !8
  br label %29

28:                                               ; preds = %21
  store i32 -98, ptr %7, align 4, !tbaa !8
  br label %29

29:                                               ; preds = %28, %24
  br label %30

30:                                               ; preds = %29, %17
  br label %31

31:                                               ; preds = %30, %13
  %32 = load i32, ptr %7, align 4, !tbaa !8
  call void @llvm.lifetime.end.p0(i64 4, ptr %7) #8
  ret i32 %32
}