; Function Attrs: nofree norecurse nosync nounwind uwtable
define range(i32 -98, 1) i32 @sp_toradix(ptr noundef captures(address_is_null) %0, ptr noundef captures(address_is_null) %1, i32 noundef %2) local_unnamed_addr #15 {
  %4 = icmp eq ptr %0, null
  %5 = icmp eq ptr %1, null
  %or.cond = or i1 %4, %5
  br i1 %or.cond, label %sp_tohex.exit, label %6

6:                                                ; preds = %3
  switch i32 %2, label %sp_tohex.exit [
    i32 16, label %7
    i32 10, label %57
  ]

7:                                                ; preds = %6
  %8 = load i16, ptr %0, align 8, !tbaa !12
  %9 = icmp eq i16 %8, 0
  br i1 %9, label %10, label %13

10:                                               ; preds = %7
  %11 = getelementptr inbounds nuw i8, ptr %1, i64 1
  store i8 48, ptr %1, align 1, !tbaa !13
  %12 = getelementptr inbounds nuw i8, ptr %1, i64 2
  store i8 48, ptr %11, align 1, !tbaa !13
  br label %.loopexit46.i

13:                                               ; preds = %7
  %14 = zext i16 %8 to i64
  %15 = add nuw nsw i64 %14, 4294967295
  %16 = getelementptr inbounds nuw i8, ptr %0, i64 8
  %17 = and i64 %15, 4294967295
  %18 = getelementptr inbounds nuw [129 x i64], ptr %16, i64 0, i64 %17
  %19 = load i64, ptr %18, align 8, !tbaa !8
  %20 = zext i16 %8 to i64
  %21 = add nsw i64 %20, -1
  br label %.outer

.outer:                                           ; preds = %.thread, %13
  %indvars.iv = phi i64 [ %indvars.iv.next, %.thread ], [ %21, %13 ]
  %.049.i.ph = phi i64 [ %32, %.thread ], [ %19, %13 ]
  %.03548.i.ph = phi i32 [ 48, %.thread ], [ 56, %13 ]
  br label %22

22:                                               ; preds = %.outer, %28
  %.03548.i = phi i32 [ %29, %28 ], [ %.03548.i.ph, %.outer ]
  %23 = zext nneg i32 %.03548.i to i64
  %24 = shl i64 255, %23
  %25 = and i64 %24, %.049.i.ph
  %.not.i = icmp eq i64 %25, 0
  br i1 %.not.i, label %26, label %.lr.ph.preheader.i.loopexit

26:                                               ; preds = %22
  %27 = icmp eq i32 %.03548.i, 0
  br i1 %27, label %.thread, label %28

28:                                               ; preds = %26
  %29 = add nsw i32 %.03548.i, -8
  %30 = icmp sgt i32 %.03548.i, 7
  br i1 %30, label %22, label %34, !llvm.loop !117

.thread:                                          ; preds = %26
  %indvars.iv.next = add nsw i64 %indvars.iv, -1
  %31 = getelementptr inbounds [129 x i64], ptr %16, i64 0, i64 %indvars.iv.next
  %32 = load i64, ptr %31, align 8, !tbaa !8
  %33 = icmp sgt i64 %indvars.iv, 0
  br i1 %33, label %.outer, label %.lr.ph.preheader.i, !llvm.loop !117

34:                                               ; preds = %28
  %35 = trunc nuw nsw i64 %indvars.iv to i32
  br label %.preheader.i

.lr.ph.preheader.i.loopexit:                      ; preds = %22
  %36 = trunc nuw nsw i64 %indvars.iv to i32
  %37 = or disjoint i32 %.03548.i, 4
  %38 = zext nneg i32 %37 to i64
  br label %.lr.ph.preheader.i

.lr.ph.preheader.i:                               ; preds = %.thread, %.lr.ph.preheader.i.loopexit
  %.0.lcssa74.i = phi i64 [ %.049.i.ph, %.lr.ph.preheader.i.loopexit ], [ %32, %.thread ]
  %.035.lcssa73.i = phi i64 [ %38, %.lr.ph.preheader.i.loopexit ], [ 52, %.thread ]
  %.037.lcssa72.i = phi i32 [ %36, %.lr.ph.preheader.i.loopexit ], [ -1, %.thread ]
  br label %.lr.ph.i

.preheader.i:                                     ; preds = %.lr.ph.i, %34
  %.037.lcssa71.i = phi i32 [ %35, %34 ], [ %.037.lcssa72.i, %.lr.ph.i ]
  %.141.lcssa.i = phi ptr [ %1, %34 ], [ %45, %.lr.ph.i ]
  %39 = icmp sgt i32 %.037.lcssa71.i, 0
  br i1 %39, label %.lr.ph57.preheader.i, label %.loopexit46.i

.lr.ph57.preheader.i:                             ; preds = %.preheader.i
  %40 = zext nneg i32 %.037.lcssa71.i to i64
  br label %.lr.ph57.i

.lr.ph.i:                                         ; preds = %.lr.ph.i, %.lr.ph.preheader.i
  %indvars.iv.i = phi i64 [ %.035.lcssa73.i, %.lr.ph.preheader.i ], [ %indvars.iv.next.i, %.lr.ph.i ]
  %.14150.i = phi ptr [ %1, %.lr.ph.preheader.i ], [ %45, %.lr.ph.i ]
  %41 = lshr i64 %.0.lcssa74.i, %indvars.iv.i
  %42 = and i64 %41, 15
  %43 = getelementptr inbounds nuw [16 x i8], ptr @ByteToHex.kHexChar, i64 0, i64 %42
  %44 = load i8, ptr %43, align 1, !tbaa !13
  %45 = getelementptr inbounds nuw i8, ptr %.14150.i, i64 1
  store i8 %44, ptr %.14150.i, align 1, !tbaa !13
  %indvars.iv.next.i = add nsw i64 %indvars.iv.i, -4
  %46 = trunc nuw i64 %indvars.iv.i to i32
  %47 = icmp sgt i32 %46, 3
  br i1 %47, label %.lr.ph.i, label %.preheader.i, !llvm.loop !118

.loopexit.i:                                      ; preds = %51
  %48 = icmp sgt i64 %indvars.iv64.i, 1
  br i1 %48, label %.lr.ph57.i, label %.loopexit46.i, !llvm.loop !119

.lr.ph57.i:                                       ; preds = %.loopexit.i, %.lr.ph57.preheader.i
  %indvars.iv64.i = phi i64 [ %40, %.lr.ph57.preheader.i ], [ %indvars.iv.next65.i, %.loopexit.i ]
  %.24255.i = phi ptr [ %.141.lcssa.i, %.lr.ph57.preheader.i ], [ %56, %.loopexit.i ]
  %indvars.iv.next65.i = add nsw i64 %indvars.iv64.i, -1
  %49 = getelementptr inbounds nuw [129 x i64], ptr %16, i64 0, i64 %indvars.iv.next65.i
  %50 = load i64, ptr %49, align 8, !tbaa !8
  br label %51

51:                                               ; preds = %51, %.lr.ph57.i
  %indvars.iv61.i = phi i64 [ 60, %.lr.ph57.i ], [ %indvars.iv.next62.i, %51 ]
  %.34352.i = phi ptr [ %.24255.i, %.lr.ph57.i ], [ %56, %51 ]
  %52 = lshr i64 %50, %indvars.iv61.i
  %53 = and i64 %52, 15
  %54 = getelementptr inbounds nuw [16 x i8], ptr @ByteToHex.kHexChar, i64 0, i64 %53
  %55 = load i8, ptr %54, align 1, !tbaa !13
  %56 = getelementptr inbounds nuw i8, ptr %.34352.i, i64 1
  store i8 %55, ptr %.34352.i, align 1, !tbaa !13
  %indvars.iv.next62.i = add nsw i64 %indvars.iv61.i, -4
  %.not67.i = icmp eq i64 %indvars.iv61.i, 0
  br i1 %.not67.i, label %.loopexit.i, label %51, !llvm.loop !120

.loopexit46.i:                                    ; preds = %.loopexit.i, %.preheader.i, %10
  %.040.i = phi ptr [ %12, %10 ], [ %.141.lcssa.i, %.preheader.i ], [ %56, %.loopexit.i ]
  store i8 0, ptr %.040.i, align 1, !tbaa !13
  br label %sp_tohex.exit

57:                                               ; preds = %6
  %58 = tail call i32 @sp_todecimal(ptr noundef nonnull %0, ptr noundef nonnull %1)
  br label %sp_tohex.exit

sp_tohex.exit:                                    ; preds = %.loopexit46.i, %6, %3, %57
  %.0 = phi i32 [ %58, %57 ], [ -98, %3 ], [ -98, %6 ], [ 0, %.loopexit46.i ]
  ret i32 %.0
}